target datalayout = "e-m:e-p270:32:32-p271:32:32-p272:64:64-i64:64-i128:128-f80:128-n8:16:32:64-S128"
target triple = "x86_64-pc-linux-gnu"

%struct.redisServer = type { i32, i64, ptr, ptr, ptr, i32, i32, i32, i32, i32, ptr, ptr, ptr, ptr, ptr, i32, i32, i32, i32, i64, i32, i32, i32, i32, ptr, i32, i32, [41 x i8], i32, i64, i32, i32, i32, ptr, ptr, i32, i32, i64, ptr, ptr, ptr, ptr, [2 x i32], i32, i32, i32, i32, i32, i32, [16 x ptr], i32, ptr, ptr, i32, [8 x %struct.connListener], i32, %struct.connListener, ptr, ptr, ptr, ptr, ptr, ptr, ptr, ptr, ptr, ptr, i32, ptr, i32, ptr, [3 x %struct.pause_event], [256 x i8], ptr, i64, i32, i32, [128 x i32], i32, i32, i64, i32, i32, i32, i32, i32, i64, i64, i64, i64, i64, i64, i64, i64, i64, i64, double, i64, i64, i64, i64, i64, i64, i64, i64, i64, i64, i64, i64, i64, i64, i64, i64, i64, i64, i64, i64, i64, double, i64, i64, i64, i64, i64, ptr, i64, i64, i64, %struct.malloc_stats, i64, i64, i64, i64, i64, i64, i64, i64, i64, i64, i64, i64, double, [4 x i64], i64, i64, i64, i64, [128 x i64], [128 x i64], i64, i64, [7 x %struct.anon], i64, i64, i64, i64, i64, i64, [4 x %struct.durationStats], i32, i32, i32, i32, i32, i32, i32, i32, i32, i32, i32, i32, i64, i32, i32, i32, i32, i64, i64, i32, i32, i32, i32, i32, ptr, [3 x %struct.clientBufferLimitsConfig], i32, i32, i32, ptr, i32, i32, i32, i32, i32, i32, ptr, ptr, i32, i32, i64, i64, i64, i64, i64, i32, i32, ptr, i32, i32, i64, i64, i64, i64, i64, i32, i32, i64, i32, i32, i32, i32, i32, i32, i32, i32, ptr, i32, i64, i64, i64, i64, i32, ptr, i32, ptr, i32, i32, i32, i64, i64, i64, i64, i32, i32, i32, i32, i32, i32, ptr, i32, i32, ptr, i32, i32, i32, [2 x i32], i32, %struct.redisOpArray, i32, ptr, i32, ptr, i32, i32, i32, i32, i32, i32, i32, [41 x i8], [41 x i8], i64, i64, i64, i64, i32, i32, ptr, i64, i64, %struct.replDataBuf, i64, i64, i32, i32, i32, i32, i32, i32, i32, i32, i32, i64, ptr, i64, ptr, ptr, ptr, i32, i32, ptr, ptr, i32, i32, i32, i64, i64, i64, i64, ptr, ptr, i32, ptr, i64, i32, i32, i32, i64, i32, i32, i32, i32, ptr, i32, i32, [41 x i8], i64, i32, ptr, i32, i32, i64, i64, i32, i32, i32, i32, i32, i64, [3 x i32], i32, i32, i32, [10 x i32], ptr, ptr, i32, i64, ptr, ptr, i32, i32, i32, i32, i64, i64, i64, i64, i64, i64, i64, i64, i64, i64, i32, i32, i64, i64, i32, i64, i64, i64, i64, i64, ptr, ptr, i32, ptr, i32, i32, i32, i32, i64, i64, ptr, ptr, i32, i32, i32, i32, i32, ptr, ptr, ptr, i32, i32, i32, i32, i32, i32, i32, i64, i32, i32, i64, i32, i32, i32, i32, i32, i32, i32, i64, ptr, ptr, i64, ptr, i32, %struct.aclInfo, i32, i64, i32, i32, i32, %struct.redisTLSContextConfig, ptr, ptr, ptr, ptr, ptr, i64, i32, ptr, i32, i32, i32, i64, i32, ptr }
%struct.connListener = type { [16 x i32], i32, ptr, i32, i32, ptr, ptr }
%struct.pause_event = type { i32, i64 }
%struct.malloc_stats = type { i64, i64, i64, i64, i64, i64, i64, i64, i64, i64, i64 }
%struct.anon = type { i64, i64, [16 x i64], i32 }
%struct.durationStats = type { i64, i64, i64 }
%struct.clientBufferLimitsConfig = type { i64, i64, i64 }
%struct.redisOpArray = type { ptr, i32, i32 }
%struct.replDataBuf = type { ptr, i64, i64, i64, i64 }
%struct.aclInfo = type { i64, i64, i64, i64 }
%struct.redisTLSContextConfig = type { ptr, ptr, ptr, ptr, ptr, ptr, ptr, ptr, ptr, ptr, ptr, ptr, i32, i32, i32, i32 }
%struct.sharedObjectsStruct = type { ptr, ptr, ptr, ptr, ptr, ptr, ptr, ptr, [4 x ptr], [4 x ptr], [4 x ptr], [4 x ptr], ptr, ptr, ptr, ptr, ptr, ptr, ptr, ptr, ptr, ptr, ptr, ptr, ptr, ptr, ptr, ptr, ptr, ptr, ptr, ptr, ptr, ptr, ptr, ptr, ptr, ptr, ptr, ptr, ptr, ptr, ptr, ptr, ptr, ptr, ptr, ptr, ptr, ptr, ptr, ptr, ptr, ptr, ptr, ptr, ptr, ptr, ptr, ptr, ptr, ptr, ptr, ptr, ptr, ptr, ptr, ptr, ptr, ptr, ptr, ptr, ptr, ptr, ptr, ptr, ptr, ptr, ptr, ptr, ptr, ptr, ptr, ptr, ptr, ptr, ptr, ptr, [10 x ptr], [10000 x ptr], [32 x ptr], [32 x ptr], [32 x ptr], [32 x ptr], ptr, ptr }
%struct.redisObject = type { i32, i32, ptr }
%struct.client = type { i64, i64, ptr, i8, i8, i8, i8, i32, ptr, ptr, ptr, ptr, ptr, i64, i64, i32, ptr, i32, i32, ptr, i64, ptr, ptr, ptr, ptr, ptr, i32, i32, i64, ptr, i64, ptr, i64, i64, i64, i32, ptr, i64, i64, i32, i32, i32, i32, i64, i64, ptr, i64, i64, i64, i64, i64, i64, i64, i64, [41 x i8], i32, ptr, i32, i32, i64, %struct.multiState, %struct.blockingState, i64, ptr, ptr, ptr, ptr, ptr, ptr, ptr, ptr, ptr, ptr, ptr, ptr, ptr, ptr, i64, ptr, i64, i32, ptr, ptr, ptr, i64, %struct.listNode, i64, i64, i32, i64, ptr }
%struct.multiState = type { ptr, i32, i32, i32, i64, i32 }
%struct.blockingState = type { i32, i64, i32, ptr, i32, i32, i64, ptr, ptr, i64 }
%struct.listNode = type { ptr, ptr, ptr }

@server = external global %struct.redisServer, align 8
@shared = external global %struct.sharedObjectsStruct, align 8
@.str.31 = private unnamed_addr constant [7 x i8] c"nosave\00", align 1
@.str.32 = private unnamed_addr constant [5 x i8] c"save\00", align 1
@.str.33 = private unnamed_addr constant [4 x i8] c"now\00", align 1
@.str.34 = private unnamed_addr constant [6 x i8] c"force\00", align 1
@.str.35 = private unnamed_addr constant [6 x i8] c"abort\00", align 1
@.str.36 = private unnamed_addr constant [25 x i8] c"No shutdown in progress.\00", align 1
@.str.37 = private unnamed_addr constant [69 x i8] c"SHUTDOWN without NOW or ABORT isn't allowed for DENY BLOCKING client\00", align 1
@.str.38 = private unnamed_addr constant [9 x i8] c"-BUSY %s\00", align 1

; Function Attrs: nounwind uwtable
define dso_local void @shutdownCommand(ptr noundef %0) #0 {
  %2 = alloca ptr, align 8
  %3 = alloca i32, align 4
  %4 = alloca i32, align 4
  %5 = alloca i32, align 4
  %6 = alloca i32, align 4
  store ptr %0, ptr %2, align 8, !tbaa !76
  call void @llvm.lifetime.start.p0(i64 4, ptr %3) #15
  store i32 0, ptr %3, align 4, !tbaa !14
  call void @llvm.lifetime.start.p0(i64 4, ptr %4) #15
  store i32 0, ptr %4, align 4, !tbaa !14
  call void @llvm.lifetime.start.p0(i64 4, ptr %5) #15
  store i32 1, ptr %5, align 4, !tbaa !14
  br label %7

7:                                                ; preds = %95, %1
  %8 = load i32, ptr %5, align 4, !tbaa !14
  %9 = load ptr, ptr %2, align 8, !tbaa !76
  %10 = getelementptr inbounds nuw %struct.client, ptr %9, i32 0, i32 15
  %11 = load i32, ptr %10, align 8, !tbaa !111
  %12 = icmp slt i32 %8, %11
  br i1 %12, label %14, label %13

13:                                               ; preds = %7
  store i32 2, ptr %6, align 4
  br label %98

14:                                               ; preds = %7
  %15 = load ptr, ptr %2, align 8, !tbaa !76
  %16 = getelementptr inbounds nuw %struct.client, ptr %15, i32 0, i32 16
  %17 = load ptr, ptr %16, align 8, !tbaa !112
  %18 = load i32, ptr %5, align 4, !tbaa !14
  %19 = sext i32 %18 to i64
  %20 = getelementptr inbounds ptr, ptr %17, i64 %19
  %21 = load ptr, ptr %20, align 8, !tbaa !5
  %22 = getelementptr inbounds nuw %struct.redisObject, ptr %21, i32 0, i32 2
  %23 = load ptr, ptr %22, align 8, !tbaa !25
  %24 = call i32 @strcasecmp(ptr noundef %23, ptr noundef @.str.31) #19
  %25 = icmp ne i32 %24, 0
  br i1 %25, label %29, label %26

26:                                               ; preds = %14
  %27 = load i32, ptr %3, align 4, !tbaa !14
  %28 = or i32 %27, 2
  store i32 %28, ptr %3, align 4, !tbaa !14
  br label %94

29:                                               ; preds = %14
  %30 = load ptr, ptr %2, align 8, !tbaa !76
  %31 = getelementptr inbounds nuw %struct.client, ptr %30, i32 0, i32 16
  %32 = load ptr, ptr %31, align 8, !tbaa !112
  %33 = load i32, ptr %5, align 4, !tbaa !14
  %34 = sext i32 %33 to i64
  %35 = getelementptr inbounds ptr, ptr %32, i64 %34
  %36 = load ptr, ptr %35, align 8, !tbaa !5
  %37 = getelementptr inbounds nuw %struct.redisObject, ptr %36, i32 0, i32 2
  %38 = load ptr, ptr %37, align 8, !tbaa !25
  %39 = call i32 @strcasecmp(ptr noundef %38, ptr noundef @.str.32) #19
  %40 = icmp ne i32 %39, 0
  br i1 %40, label %44, label %41

41:                                               ; preds = %29
  %42 = load i32, ptr %3, align 4, !tbaa !14
  %43 = or i32 %42, 1
  store i32 %43, ptr %3, align 4, !tbaa !14
  br label %93

44:                                               ; preds = %29
  %45 = load ptr, ptr %2, align 8, !tbaa !76
  %46 = getelementptr inbounds nuw %struct.client, ptr %45, i32 0, i32 16
  %47 = load ptr, ptr %46, align 8, !tbaa !112
  %48 = load i32, ptr %5, align 4, !tbaa !14
  %49 = sext i32 %48 to i64
  %50 = getelementptr inbounds ptr, ptr %47, i64 %49
  %51 = load ptr, ptr %50, align 8, !tbaa !5
  %52 = getelementptr inbounds nuw %struct.redisObject, ptr %51, i32 0, i32 2
  %53 = load ptr, ptr %52, align 8, !tbaa !25
  %54 = call i32 @strcasecmp(ptr noundef %53, ptr noundef @.str.33) #19
  %55 = icmp ne i32 %54, 0
  br i1 %55, label %59, label %56

56:                                               ; preds = %44
  %57 = load i32, ptr %3, align 4, !tbaa !14
  %58 = or i32 %57, 4
  store i32 %58, ptr %3, align 4, !tbaa !14
  br label %92

59:                                               ; preds = %44
  %60 = load ptr, ptr %2, align 8, !tbaa !76
  %61 = getelementptr inbounds nuw %struct.client, ptr %60, i32 0, i32 16
  %62 = load ptr, ptr %61, align 8, !tbaa !112
  %63 = load i32, ptr %5, align 4, !tbaa !14
  %64 = sext i32 %63 to i64
  %65 = getelementptr inbounds ptr, ptr %62, i64 %64
  %66 = load ptr, ptr %65, align 8, !tbaa !5
  %67 = getelementptr inbounds nuw %struct.redisObject, ptr %66, i32 0, i32 2
  %68 = load ptr, ptr %67, align 8, !tbaa !25
  %69 = call i32 @strcasecmp(ptr noundef %68, ptr noundef @.str.34) #19
  %70 = icmp ne i32 %69, 0
  br i1 %70, label %74, label %71

71:                                               ; preds = %59
  %72 = load i32, ptr %3, align 4, !tbaa !14
  %73 = or i32 %72, 8
  store i32 %73, ptr %3, align 4, !tbaa !14
  br label %91

74:                                               ; preds = %59
  %75 = load ptr, ptr %2, align 8, !tbaa !76
  %76 = getelementptr inbounds nuw %struct.client, ptr %75, i32 0, i32 16
  %77 = load ptr, ptr %76, align 8, !tbaa !112
  %78 = load i32, ptr %5, align 4, !tbaa !14
  %79 = sext i32 %78 to i64
  %80 = getelementptr inbounds ptr, ptr %77, i64 %79
  %81 = load ptr, ptr %80, align 8, !tbaa !5
  %82 = getelementptr inbounds nuw %struct.redisObject, ptr %81, i32 0, i32 2
  %83 = load ptr, ptr %82, align 8, !tbaa !25
  %84 = call i32 @strcasecmp(ptr noundef %83, ptr noundef @.str.35) #19
  %85 = icmp ne i32 %84, 0
  br i1 %85, label %87, label %86

86:                                               ; preds = %74
  store i32 1, ptr %4, align 4, !tbaa !14
  br label %90

87:                                               ; preds = %74
  %88 = load ptr, ptr %2, align 8, !tbaa !76
  %89 = load ptr, ptr getelementptr inbounds nuw (%struct.sharedObjectsStruct, ptr @shared, i32 0, i32 15), align 8, !tbaa !114
  call void @addReplyErrorObject(ptr noundef %88, ptr noundef %89)
  store i32 1, ptr %6, align 4
  br label %98

90:                                               ; preds = %86
  br label %91

91:                                               ; preds = %90, %71
  br label %92

92:                                               ; preds = %91, %56
  br label %93

93:                                               ; preds = %92, %41
  br label %94

94:                                               ; preds = %93, %26
  br label %95

95:                                               ; preds = %94
  %96 = load i32, ptr %5, align 4, !tbaa !14
  %97 = add nsw i32 %96, 1
  store i32 %97, ptr %5, align 4, !tbaa !14
  br label %7, !llvm.loop !181

98:                                               ; preds = %87, %13
  call void @llvm.lifetime.end.p0(i64 4, ptr %5) #15
  %99 = load i32, ptr %6, align 4
  switch i32 %99, label %182 [
    i32 2, label %100
  ]

100:                                              ; preds = %98
  %101 = load i32, ptr %4, align 4, !tbaa !14
  %102 = icmp ne i32 %101, 0
  br i1 %102, label %103, label %106

103:                                              ; preds = %100
  %104 = load i32, ptr %3, align 4, !tbaa !14
  %105 = icmp ne i32 %104, 0
  br i1 %105, label %114, label %106

106:                                              ; preds = %103, %100
  %107 = load i32, ptr %3, align 4, !tbaa !14
  %108 = and i32 %107, 2
  %109 = icmp ne i32 %108, 0
  br i1 %109, label %110, label %117

110:                                              ; preds = %106
  %111 = load i32, ptr %3, align 4, !tbaa !14
  %112 = and i32 %111, 1
  %113 = icmp ne i32 %112, 0
  br i1 %113, label %114, label %117

114:                                              ; preds = %110, %103
  %115 = load ptr, ptr %2, align 8, !tbaa !76
  %116 = load ptr, ptr getelementptr inbounds nuw (%struct.sharedObjectsStruct, ptr @shared, i32 0, i32 15), align 8, !tbaa !114
  call void @addReplyErrorObject(ptr noundef %115, ptr noundef %116)
  store i32 1, ptr %6, align 4
  br label %182

117:                                              ; preds = %110, %106
  %118 = load i32, ptr %4, align 4, !tbaa !14
  %119 = icmp ne i32 %118, 0
  br i1 %119, label %120, label %129

120:                                              ; preds = %117
  %121 = call i32 @abortShutdown()
  %122 = icmp eq i32 %121, 0
  br i1 %122, label %123, label %126

123:                                              ; preds = %120
  %124 = load ptr, ptr %2, align 8, !tbaa !76
  %125 = load ptr, ptr @shared, align 8, !tbaa !125
  call void @addReply(ptr noundef %124, ptr noundef %125)
  br label %128

126:                                              ; preds = %120
  %127 = load ptr, ptr %2, align 8, !tbaa !76
  call void @addReplyError(ptr noundef %127, ptr noundef @.str.36)
  br label %128

128:                                              ; preds = %126, %123
  store i32 1, ptr %6, align 4
  br label %182

129:                                              ; preds = %117
  %130 = load i32, ptr %3, align 4, !tbaa !14
  %131 = and i32 %130, 4
  %132 = icmp ne i32 %131, 0
  br i1 %132, label %141, label %133

133:                                              ; preds = %129
  %134 = load ptr, ptr %2, align 8, !tbaa !76
  %135 = getelementptr inbounds nuw %struct.client, ptr %134, i32 0, i32 1
  %136 = load i64, ptr %135, align 8, !tbaa !54
  %137 = and i64 %136, 2199023255552
  %138 = icmp ne i64 %137, 0
  br i1 %138, label %139, label %141

139:                                              ; preds = %133
  %140 = load ptr, ptr %2, align 8, !tbaa !76
  call void @addReplyError(ptr noundef %140, ptr noundef @.str.37)
  store i32 1, ptr %6, align 4
  br label %182

141:                                              ; preds = %133, %129
  %142 = load i32, ptr %3, align 4, !tbaa !14
  %143 = and i32 %142, 2
  %144 = icmp ne i32 %143, 0
  br i1 %144, label %175, label %145

145:                                              ; preds = %141
  %146 = call i32 @isInsideYieldingLongCommand()
  %147 = icmp ne i32 %146, 0
  br i1 %147, label %148, label %175

148:                                              ; preds = %145
  %149 = load i32, ptr getelementptr inbounds nuw (%struct.redisServer, ptr @server, i32 0, i32 32), align 8, !tbaa !182
  %150 = icmp ne i32 %149, 0
  br i1 %150, label %151, label %157

151:                                              ; preds = %148
  %152 = load ptr, ptr getelementptr inbounds nuw (%struct.redisServer, ptr @server, i32 0, i32 33), align 8, !tbaa !183
  %153 = icmp ne ptr %152, null
  br i1 %153, label %154, label %157

154:                                              ; preds = %151
  %155 = load ptr, ptr %2, align 8, !tbaa !76
  %156 = load ptr, ptr getelementptr inbounds nuw (%struct.redisServer, ptr @server, i32 0, i32 33), align 8, !tbaa !183
  call void (ptr, ptr, ...) @addReplyErrorFormat(ptr noundef %155, ptr noundef @.str.38, ptr noundef %156)
  br label %174

157:                                              ; preds = %151, %148
  %158 = load i32, ptr getelementptr inbounds nuw (%struct.redisServer, ptr @server, i32 0, i32 32), align 8, !tbaa !182
  %159 = icmp ne i32 %158, 0
  br i1 %159, label %160, label %163

160:                                              ; preds = %157
  %161 = load ptr, ptr %2, align 8, !tbaa !76
  %162 = load ptr, ptr getelementptr inbounds nuw (%struct.sharedObjectsStruct, ptr @shared, i32 0, i32 22), align 8, !tbaa !184
  call void @addReplyErrorObject(ptr noundef %161, ptr noundef %162)
  br label %173

163:                                              ; preds = %157
  %164 = call i32 @scriptIsEval()
  %165 = icmp ne i32 %164, 0
  br i1 %165, label %166, label %169

166:                                              ; preds = %163
  %167 = load ptr, ptr %2, align 8, !tbaa !76
  %168 = load ptr, ptr getelementptr inbounds nuw (%struct.sharedObjectsStruct, ptr @shared, i32 0, i32 20), align 8, !tbaa !185
  call void @addReplyErrorObject(ptr noundef %167, ptr noundef %168)
  br label %172

169:                                              ; preds = %163
  %170 = load ptr, ptr %2, align 8, !tbaa !76
  %171 = load ptr, ptr getelementptr inbounds nuw (%struct.sharedObjectsStruct, ptr @shared, i32 0, i32 21), align 8, !tbaa !186
  call void @addReplyErrorObject(ptr noundef %170, ptr noundef %171)
  br label %172

172:                                              ; preds = %169, %166
  br label %173

173:                                              ; preds = %172, %160
  br label %174

174:                                              ; preds = %173, %154
  store i32 1, ptr %6, align 4
  br label %182

175:                                              ; preds = %145, %141
  %176 = load ptr, ptr %2, align 8, !tbaa !76
  call void @blockClientShutdown(ptr noundef %176)
  %177 = load i32, ptr %3, align 4, !tbaa !14
  %178 = call i32 @prepareForShutdown(i32 noundef %177)
  %179 = icmp eq i32 %178, 0
  br i1 %179, label %180, label %181

180:                                              ; preds = %175
  call void @exit(i32 noundef 0) #16
  unreachable

181:                                              ; preds = %175
  store i32 0, ptr %6, align 4
  br label %182

182:                                              ; preds = %181, %174, %139, %128, %114, %98
  call void @llvm.lifetime.end.p0(i64 4, ptr %4) #15
  call void @llvm.lifetime.end.p0(i64 4, ptr %3) #15
  %183 = load i32, ptr %6, align 4
  switch i32 %183, label %185 [
    i32 0, label %184
    i32 1, label %184
  ]

184:                                              ; preds = %182, %182
  ret void

185:                                              ; preds = %182
  unreachable
}