; Function Attrs: nounwind uwtable
define dso_local void @shutdownCommand(ptr noundef %0) local_unnamed_addr #0 {
  %2 = getelementptr inbounds nuw i8, ptr %0, i64 88
  %3 = load i32, ptr %2, align 8, !tbaa !103
  %.not4858 = icmp sgt i32 %3, 1
  br i1 %.not4858, label %.lr.ph, label %.thread82

.lr.ph:                                           ; preds = %1
  %4 = getelementptr inbounds nuw i8, ptr %0, i64 96
  %5 = load ptr, ptr %4, align 8, !tbaa !104
  %wide.trip.count = zext nneg i32 %3 to i64
  br label %6

6:                                                ; preds = %.lr.ph, %30
  %indvars.iv = phi i64 [ 1, %.lr.ph ], [ %indvars.iv.next, %30 ]
  %.04060 = phi i32 [ 0, %.lr.ph ], [ %.1, %30 ]
  %.04159 = phi i32 [ 0, %.lr.ph ], [ %.142, %30 ]
  %7 = getelementptr inbounds nuw ptr, ptr %5, i64 %indvars.iv
  %8 = load ptr, ptr %7, align 8, !tbaa !105
  %9 = getelementptr inbounds nuw i8, ptr %8, i64 8
  %10 = load ptr, ptr %9, align 8, !tbaa !18
  %11 = tail call i32 @strcasecmp(ptr noundef %10, ptr noundef nonnull @.str.31) #24
  %.not = icmp eq i32 %11, 0
  br i1 %.not, label %12, label %14

12:                                               ; preds = %6
  %13 = or i32 %.04159, 2
  br label %30

14:                                               ; preds = %6
  %15 = tail call i32 @strcasecmp(ptr noundef %10, ptr noundef nonnull @.str.32) #24
  %.not44 = icmp eq i32 %15, 0
  br i1 %.not44, label %16, label %18

16:                                               ; preds = %14
  %17 = or i32 %.04159, 1
  br label %30

18:                                               ; preds = %14
  %19 = tail call i32 @strcasecmp(ptr noundef %10, ptr noundef nonnull @.str.33) #24
  %.not45 = icmp eq i32 %19, 0
  br i1 %.not45, label %20, label %22

20:                                               ; preds = %18
  %21 = or i32 %.04159, 4
  br label %30

22:                                               ; preds = %18
  %23 = tail call i32 @strcasecmp(ptr noundef %10, ptr noundef nonnull @.str.34) #24
  %.not46 = icmp eq i32 %23, 0
  br i1 %.not46, label %24, label %26

24:                                               ; preds = %22
  %25 = or i32 %.04159, 8
  br label %30

26:                                               ; preds = %22
  %27 = tail call i32 @strcasecmp(ptr noundef %10, ptr noundef nonnull @.str.35) #24
  %.not47 = icmp eq i32 %27, 0
  br i1 %.not47, label %30, label %28

28:                                               ; preds = %26
  %29 = load ptr, ptr getelementptr inbounds nuw (i8, ptr @shared, i64 216), align 8, !tbaa !107
  tail call void @addReplyErrorObject(ptr noundef nonnull %0, ptr noundef %29) #20
  br label %73

30:                                               ; preds = %26, %12, %20, %24, %16
  %.142 = phi i32 [ %25, %24 ], [ %21, %20 ], [ %17, %16 ], [ %13, %12 ], [ %.04159, %26 ]
  %.1 = phi i32 [ %.04060, %24 ], [ %.04060, %20 ], [ %.04060, %16 ], [ %.04060, %12 ], [ 1, %26 ]
  %indvars.iv.next = add nuw nsw i64 %indvars.iv, 1
  %exitcond.not = icmp eq i64 %indvars.iv.next, %wide.trip.count
  br i1 %exitcond.not, label %.critedge, label %6, !llvm.loop !151

.critedge:                                        ; preds = %30
  %31 = icmp ne i32 %.1, 0
  %32 = icmp ne i32 %.142, 0
  %or.cond = select i1 %31, i1 %32, i1 false
  br i1 %or.cond, label %36, label %33

33:                                               ; preds = %.critedge
  %34 = and i32 %.142, 2
  %.not49 = icmp eq i32 %34, 0
  %35 = and i32 %.142, 3
  %or.cond55.not = icmp eq i32 %35, 3
  br i1 %or.cond55.not, label %36, label %38

36:                                               ; preds = %33, %.critedge
  %37 = load ptr, ptr getelementptr inbounds nuw (i8, ptr @shared, i64 216), align 8, !tbaa !107
  tail call void @addReplyErrorObject(ptr noundef nonnull %0, ptr noundef %37) #20
  br label %73

38:                                               ; preds = %33
  br i1 %31, label %39, label %45

39:                                               ; preds = %38
  %40 = tail call i32 @abortShutdown() #20
  %41 = icmp eq i32 %40, 0
  br i1 %41, label %42, label %44

42:                                               ; preds = %39
  %43 = load ptr, ptr @shared, align 8, !tbaa !115
  tail call void @addReply(ptr noundef nonnull %0, ptr noundef %43) #20
  br label %73

44:                                               ; preds = %39
  tail call void @addReplyError(ptr noundef nonnull %0, ptr noundef nonnull @.str.36) #20
  br label %73

45:                                               ; preds = %38
  %46 = and i32 %.142, 4
  %.not51 = icmp eq i32 %46, 0
  br i1 %.not51, label %.thread82, label %51

.thread82:                                        ; preds = %1, %45
  %.not49758089 = phi i1 [ %.not49, %45 ], [ true, %1 ]
  %.041.lcssa67748187 = phi i32 [ %.142, %45 ], [ 0, %1 ]
  %47 = getelementptr inbounds nuw i8, ptr %0, i64 8
  %48 = load i64, ptr %47, align 8, !tbaa !55
  %49 = and i64 %48, 2199023255552
  %.not52 = icmp eq i64 %49, 0
  br i1 %.not52, label %51, label %50

50:                                               ; preds = %.thread82
  tail call void @addReplyError(ptr noundef nonnull %0, ptr noundef nonnull @.str.37) #20
  br label %73

51:                                               ; preds = %.thread82, %45
  %.not49758088 = phi i1 [ %.not49758089, %.thread82 ], [ %.not49, %45 ]
  %.041.lcssa67748186 = phi i32 [ %.041.lcssa67748187, %.thread82 ], [ %.142, %45 ]
  br i1 %.not49758088, label %52, label %69

52:                                               ; preds = %51
  %53 = tail call i32 @isInsideYieldingLongCommand() #20
  %.not53 = icmp eq i32 %53, 0
  br i1 %.not53, label %69, label %54

54:                                               ; preds = %52
  %55 = load i32, ptr getelementptr inbounds nuw (i8, ptr @server, i64 224), align 8, !tbaa !152
  %56 = icmp ne i32 %55, 0
  %57 = load ptr, ptr getelementptr inbounds nuw (i8, ptr @server, i64 232), align 8
  %58 = icmp ne ptr %57, null
  %or.cond3 = select i1 %56, i1 %58, i1 false
  br i1 %or.cond3, label %59, label %60

59:                                               ; preds = %54
  tail call void (ptr, ptr, ...) @addReplyErrorFormat(ptr noundef nonnull %0, ptr noundef nonnull @.str.38, ptr noundef nonnull %57) #20
  br label %73

60:                                               ; preds = %54
  br i1 %56, label %61, label %63

61:                                               ; preds = %60
  %62 = load ptr, ptr getelementptr inbounds nuw (i8, ptr @shared, i64 272), align 8, !tbaa !153
  tail call void @addReplyErrorObject(ptr noundef nonnull %0, ptr noundef %62) #20
  br label %73

63:                                               ; preds = %60
  %64 = tail call i32 @scriptIsEval() #20
  %.not54 = icmp eq i32 %64, 0
  br i1 %.not54, label %67, label %65

65:                                               ; preds = %63
  %66 = load ptr, ptr getelementptr inbounds nuw (i8, ptr @shared, i64 256), align 8, !tbaa !154
  tail call void @addReplyErrorObject(ptr noundef nonnull %0, ptr noundef %66) #20
  br label %73

67:                                               ; preds = %63
  %68 = load ptr, ptr getelementptr inbounds nuw (i8, ptr @shared, i64 264), align 8, !tbaa !155
  tail call void @addReplyErrorObject(ptr noundef nonnull %0, ptr noundef %68) #20
  br label %73

69:                                               ; preds = %52, %51
  tail call void @blockClientShutdown(ptr noundef nonnull %0) #20
  %70 = tail call i32 @prepareForShutdown(i32 noundef %.041.lcssa67748186) #20
  %71 = icmp eq i32 %70, 0
  br i1 %71, label %72, label %73

72:                                               ; preds = %69
  tail call void @exit(i32 noundef 0) #21
  unreachable

73:                                               ; preds = %28, %69, %59, %65, %67, %61, %42, %44, %50, %36
  ret void
}